; Function Attrs: nounwind uwtable
define ptr @l_Lean_Elab_WF_GuessLex_complexMeasures___boxed(ptr noundef %0, ptr noundef %1, ptr noundef %2, ptr noundef %3, ptr noundef %4, ptr noundef %5, ptr noundef %6, ptr noundef %7, ptr noundef %8) local_unnamed_addr #1 {
  %10 = getelementptr i8, ptr %0, i64 8
  %.val.i = load i64, ptr %10, align 8, !tbaa !12
  %11 = shl i64 %.val.i, 1
  %12 = or disjoint i64 %11, 1
  %13 = inttoptr i64 %12 to ptr
  %14 = and i64 %.val.i, 9223372036854775807
  %15 = shl i64 %.val.i, 3
  %16 = add i64 %15, 24
  %17 = tail call ptr @lean_alloc_object(i64 noundef %16) #8
  store i32 1, ptr %17, align 4, !tbaa !8
  %18 = getelementptr inbounds nuw i8, ptr %17, i64 4
  %19 = load i32, ptr %18, align 4
  %20 = and i32 %19, 65535
  %21 = or disjoint i32 %20, -167772160
  store i32 %21, ptr %18, align 4
  %22 = getelementptr inbounds nuw i8, ptr %17, i64 8
  store i64 0, ptr %22, align 8, !tbaa !12
  %23 = getelementptr inbounds nuw i8, ptr %17, i64 16
  store i64 %14, ptr %23, align 8, !tbaa !12
  %24 = tail call ptr @l_Array_mapFinIdxM_map___at_Lean_Elab_WF_GuessLex_complexMeasures___spec__11(ptr readonly poison, ptr noundef readonly %1, ptr noundef readonly %2, ptr noundef readonly %3, ptr readonly poison, ptr noundef nonnull %13, ptr noundef nonnull inttoptr (i64 1 to ptr), ptr nonnull poison, ptr noundef nonnull %17, ptr noundef %4, ptr noundef %5, ptr noundef %6, ptr noundef %7, ptr noundef %8)
  %25 = ptrtoint ptr %3 to i64
  %26 = and i64 %25, 1
  %.not = icmp eq i64 %26, 0
  br i1 %.not, label %27, label %lean_dec.exit16

27:                                               ; preds = %9
  %28 = load i32, ptr %3, align 4, !tbaa !8
  %29 = icmp sgt i32 %28, 1
  br i1 %29, label %30, label %32, !prof !11

30:                                               ; preds = %27
  %31 = add nsw i32 %28, -1
  store i32 %31, ptr %3, align 4, !tbaa !8
  br label %lean_dec.exit16

32:                                               ; preds = %27
  %.not.i = icmp eq i32 %28, 0
  br i1 %.not.i, label %lean_dec.exit16, label %33

33:                                               ; preds = %32
  tail call void @lean_dec_ref_cold(ptr noundef nonnull %3) #8
  br label %lean_dec.exit16

lean_dec.exit16:                                  ; preds = %33, %32, %30, %9
  %34 = ptrtoint ptr %2 to i64
  %35 = and i64 %34, 1
  %.not23 = icmp eq i64 %35, 0
  br i1 %.not23, label %36, label %lean_dec.exit15

36:                                               ; preds = %lean_dec.exit16
  %37 = load i32, ptr %2, align 4, !tbaa !8
  %38 = icmp sgt i32 %37, 1
  br i1 %38, label %39, label %41, !prof !11

39:                                               ; preds = %36
  %40 = add nsw i32 %37, -1
  store i32 %40, ptr %2, align 4, !tbaa !8
  br label %lean_dec.exit15

41:                                               ; preds = %36
  %.not.i17 = icmp eq i32 %37, 0
  br i1 %.not.i17, label %lean_dec.exit15, label %42

42:                                               ; preds = %41
  tail call void @lean_dec_ref_cold(ptr noundef nonnull %2) #8
  br label %lean_dec.exit15

lean_dec.exit15:                                  ; preds = %42, %41, %39, %lean_dec.exit16
  %43 = ptrtoint ptr %1 to i64
  %44 = and i64 %43, 1
  %.not24 = icmp eq i64 %44, 0
  br i1 %.not24, label %45, label %lean_dec.exit14

45:                                               ; preds = %lean_dec.exit15
  %46 = load i32, ptr %1, align 4, !tbaa !8
  %47 = icmp sgt i32 %46, 1
  br i1 %47, label %48, label %50, !prof !11

48:                                               ; preds = %45
  %49 = add nsw i32 %46, -1
  store i32 %49, ptr %1, align 4, !tbaa !8
  br label %lean_dec.exit14

50:                                               ; preds = %45
  %.not.i19 = icmp eq i32 %46, 0
  br i1 %.not.i19, label %lean_dec.exit14, label %51

51:                                               ; preds = %50
  tail call void @lean_dec_ref_cold(ptr noundef nonnull %1) #8
  br label %lean_dec.exit14

lean_dec.exit14:                                  ; preds = %51, %50, %48, %lean_dec.exit15
  %52 = ptrtoint ptr %0 to i64
  %53 = and i64 %52, 1
  %.not25 = icmp eq i64 %53, 0
  br i1 %.not25, label %54, label %lean_dec.exit

54:                                               ; preds = %lean_dec.exit14
  %55 = load i32, ptr %0, align 4, !tbaa !8
  %56 = icmp sgt i32 %55, 1
  br i1 %56, label %57, label %59, !prof !11

57:                                               ; preds = %54
  %58 = add nsw i32 %55, -1
  store i32 %58, ptr %0, align 4, !tbaa !8
  br label %lean_dec.exit

59:                                               ; preds = %54
  %.not.i21 = icmp eq i32 %55, 0
  br i1 %.not.i21, label %lean_dec.exit, label %60

60:                                               ; preds = %59
  tail call void @lean_dec_ref_cold(ptr noundef nonnull %0) #8
  br label %lean_dec.exit

lean_dec.exit:                                    ; preds = %60, %59, %57, %lean_dec.exit14
  ret ptr %24
}